target datalayout = "e-m:e-p270:32:32-p271:32:32-p272:64:64-i64:64-i128:128-f80:128-n8:16:32:64-S128"
target triple = "x86_64-pc-linux-gnu"

%struct.pmix_object_t = type { %union.pthread_mutex_t, ptr, i32, %struct.pmix_tma }
%union.pthread_mutex_t = type { %struct.__pthread_mutex_s }
%struct.__pthread_mutex_s = type { i32, i32, i32, i32, i32, i16, i16, %struct.__pthread_internal_list }
%struct.__pthread_internal_list = type { ptr, ptr }
%struct.pmix_tma = type { ptr, ptr, ptr, ptr, ptr, ptr, ptr, ptr }
%struct.pmix_list_t = type { %struct.pmix_object_t, %struct.pmix_list_item_t, i64 }
%struct.pmix_list_item_t = type { %struct.pmix_object_t, ptr, ptr, i32 }
%struct.tuple_list_item_t = type { %struct.pmix_list_item_t, ptr, ptr, %struct.pmix_list_t, i64, i32, i8 }

@show_help_time_last_displayed = internal global i64 0, align 8
@show_help_timer_set = internal global i8 0, align 1
@abd_tuples = internal global %struct.pmix_list_t zeroinitializer, align 8
@pmix_show_accumulated_duplicates.first = internal global i8 1, align 1
@.str.3 = private unnamed_addr constant [45 x i8] c"%d more process%s sent help message %s / %s\0A\00", align 1
@.str.4 = private unnamed_addr constant [8 x i8] c"es have\00", align 1
@.str.5 = private unnamed_addr constant [5 x i8] c" has\00", align 1
@.str.6 = private unnamed_addr constant [18 x i8] c"%Y-%m-%d %H:%M:%S\00", align 1
@.str.7 = private unnamed_addr constant [6 x i8] c"%s-%s\00", align 1
@.str.8 = private unnamed_addr constant [3 x i8] c"%s\00", align 1
@.str.9 = private unnamed_addr constant [79 x i8] c"Set MCA parameter \22base_help_aggregate\22 to 0 to see all help / error messages\0A\00", align 1

; Function Attrs: nounwind uwtable
define internal void @pmix_show_accumulated_duplicates(i32 noundef %0, i16 noundef signext %1, ptr noundef %2) #0 {
  %4 = alloca i32, align 4
  %5 = alloca i16, align 2
  %6 = alloca ptr, align 8
  %7 = alloca i64, align 8
  %8 = alloca ptr, align 8
  %9 = alloca ptr, align 8
  %10 = alloca [50 x i8], align 16
  %11 = alloca ptr, align 8
  store i32 %0, ptr %4, align 4, !tbaa !10
  store i16 %1, ptr %5, align 2, !tbaa !48
  store ptr %2, ptr %6, align 8, !tbaa !12
  call void @llvm.lifetime.start.p0(i64 8, ptr %7) #13
  %12 = call i64 @time(ptr noundef null) #13
  store i64 %12, ptr %7, align 8, !tbaa !8
  call void @llvm.lifetime.start.p0(i64 8, ptr %8) #13
  call void @llvm.lifetime.start.p0(i64 8, ptr %9) #13
  %13 = load ptr, ptr getelementptr inbounds nuw (%struct.pmix_list_item_t, ptr getelementptr inbounds nuw (%struct.pmix_list_t, ptr @abd_tuples, i32 0, i32 1), i32 0, i32 1), align 8, !tbaa !42
  store ptr %13, ptr %8, align 8, !tbaa !12
  br label %14

14:                                               ; preds = %77, %3
  %15 = load ptr, ptr %8, align 8, !tbaa !12
  %16 = icmp ne ptr %15, getelementptr inbounds nuw (%struct.pmix_list_t, ptr @abd_tuples, i32 0, i32 1)
  br i1 %16, label %17, label %81

17:                                               ; preds = %14
  %18 = load ptr, ptr %8, align 8, !tbaa !12
  %19 = getelementptr inbounds nuw %struct.tuple_list_item_t, ptr %18, i32 0, i32 6
  %20 = load i8, ptr %19, align 4, !tbaa !49, !range !23, !noundef !24
  %21 = trunc i8 %20 to i1
  br i1 %21, label %22, label %76

22:                                               ; preds = %17
  %23 = load ptr, ptr %8, align 8, !tbaa !12
  %24 = getelementptr inbounds nuw %struct.tuple_list_item_t, ptr %23, i32 0, i32 5
  %25 = load i32, ptr %24, align 8, !tbaa !13
  %26 = icmp sgt i32 %25, 0
  br i1 %26, label %27, label %76

27:                                               ; preds = %22
  %28 = load ptr, ptr %8, align 8, !tbaa !12
  %29 = getelementptr inbounds nuw %struct.tuple_list_item_t, ptr %28, i32 0, i32 5
  %30 = load i32, ptr %29, align 8, !tbaa !13
  %31 = load ptr, ptr %8, align 8, !tbaa !12
  %32 = getelementptr inbounds nuw %struct.tuple_list_item_t, ptr %31, i32 0, i32 5
  %33 = load i32, ptr %32, align 8, !tbaa !13
  %34 = icmp sgt i32 %33, 1
  %35 = select i1 %34, ptr @.str.4, ptr @.str.5
  %36 = load ptr, ptr %8, align 8, !tbaa !12
  %37 = getelementptr inbounds nuw %struct.tuple_list_item_t, ptr %36, i32 0, i32 1
  %38 = load ptr, ptr %37, align 8, !tbaa !43
  %39 = load ptr, ptr %8, align 8, !tbaa !12
  %40 = getelementptr inbounds nuw %struct.tuple_list_item_t, ptr %39, i32 0, i32 2
  %41 = load ptr, ptr %40, align 8, !tbaa !44
  %42 = call i32 (ptr, ptr, ...) @pmix_asprintf(ptr noundef %9, ptr noundef @.str.3, i32 noundef %30, ptr noundef %35, ptr noundef %38, ptr noundef %41)
  %43 = call i64 @time(ptr noundef null) #13
  %44 = load ptr, ptr %8, align 8, !tbaa !12
  %45 = getelementptr inbounds nuw %struct.tuple_list_item_t, ptr %44, i32 0, i32 4
  store i64 %43, ptr %45, align 8, !tbaa !50
  call void @llvm.lifetime.start.p0(i64 50, ptr %10) #13
  call void @llvm.memset.p0.i64(ptr align 16 %10, i8 0, i64 50, i1 false)
  %46 = getelementptr inbounds [50 x i8], ptr %10, i64 0, i64 0
  %47 = load ptr, ptr %8, align 8, !tbaa !12
  %48 = getelementptr inbounds nuw %struct.tuple_list_item_t, ptr %47, i32 0, i32 4
  %49 = call ptr @localtime(ptr noundef %48) #13
  %50 = call i64 @strftime(ptr noundef %46, i64 noundef 50, ptr noundef @.str.6, ptr noundef %49) #13
  call void @llvm.lifetime.start.p0(i64 8, ptr %11) #13
  %51 = load ptr, ptr %8, align 8, !tbaa !12
  %52 = getelementptr inbounds nuw %struct.tuple_list_item_t, ptr %51, i32 0, i32 1
  %53 = load ptr, ptr %52, align 8, !tbaa !43
  %54 = getelementptr inbounds [50 x i8], ptr %10, i64 0, i64 0
  %55 = call i32 (ptr, ptr, ...) @pmix_asprintf(ptr noundef %11, ptr noundef @.str.7, ptr noundef %53, ptr noundef %54)
  %56 = load ptr, ptr %11, align 8, !tbaa !3
  %57 = load ptr, ptr %8, align 8, !tbaa !12
  %58 = getelementptr inbounds nuw %struct.tuple_list_item_t, ptr %57, i32 0, i32 2
  %59 = load ptr, ptr %58, align 8, !tbaa !44
  %60 = load ptr, ptr %9, align 8, !tbaa !3
  call void @local_delivery(ptr noundef %56, ptr noundef %59, ptr noundef %60)
  %61 = load ptr, ptr %11, align 8, !tbaa !3
  call void @free(ptr noundef %61) #13
  %62 = load ptr, ptr %8, align 8, !tbaa !12
  %63 = getelementptr inbounds nuw %struct.tuple_list_item_t, ptr %62, i32 0, i32 5
  store i32 0, ptr %63, align 8, !tbaa !13
  %64 = load i8, ptr @pmix_show_accumulated_duplicates.first, align 1, !tbaa !22, !range !23, !noundef !24
  %65 = trunc i8 %64 to i1
  br i1 %65, label %66, label %75

66:                                               ; preds = %27
  %67 = call i32 (ptr, ptr, ...) @pmix_asprintf(ptr noundef %9, ptr noundef @.str.8, ptr noundef @.str.9)
  %68 = load ptr, ptr %8, align 8, !tbaa !12
  %69 = getelementptr inbounds nuw %struct.tuple_list_item_t, ptr %68, i32 0, i32 1
  %70 = load ptr, ptr %69, align 8, !tbaa !43
  %71 = load ptr, ptr %8, align 8, !tbaa !12
  %72 = getelementptr inbounds nuw %struct.tuple_list_item_t, ptr %71, i32 0, i32 2
  %73 = load ptr, ptr %72, align 8, !tbaa !44
  %74 = load ptr, ptr %9, align 8, !tbaa !3
  call void @local_delivery(ptr noundef %70, ptr noundef %73, ptr noundef %74)
  store i8 0, ptr @pmix_show_accumulated_duplicates.first, align 1, !tbaa !22
  br label %75

75:                                               ; preds = %66, %27
  call void @llvm.lifetime.end.p0(i64 8, ptr %11) #13
  call void @llvm.lifetime.end.p0(i64 50, ptr %10) #13
  br label %76

76:                                               ; preds = %75, %22, %17
  br label %77

77:                                               ; preds = %76
  %78 = load ptr, ptr %8, align 8, !tbaa !12
  %79 = getelementptr inbounds nuw %struct.pmix_list_item_t, ptr %78, i32 0, i32 1
  %80 = load ptr, ptr %79, align 8, !tbaa !45
  store ptr %80, ptr %8, align 8, !tbaa !12
  br label %14, !llvm.loop !51

81:                                               ; preds = %14
  %82 = load i64, ptr %7, align 8, !tbaa !8
  store i64 %82, ptr @show_help_time_last_displayed, align 8, !tbaa !8
  store i8 0, ptr @show_help_timer_set, align 1, !tbaa !22
  call void @llvm.lifetime.end.p0(i64 8, ptr %9) #13
  call void @llvm.lifetime.end.p0(i64 8, ptr %8) #13
  call void @llvm.lifetime.end.p0(i64 8, ptr %7) #13
  ret void
}