; Function Attrs: nounwind uwtable
define internal void @pmix_show_accumulated_duplicates(i32 %0, i16 signext %1, ptr readnone captures(none) %2) #0 {
  %4 = alloca ptr, align 8
  %5 = alloca [50 x i8], align 16
  %6 = alloca ptr, align 8
  %7 = tail call i64 @time(ptr noundef null) #18
  call void @llvm.lifetime.start.p0(i64 8, ptr nonnull %4) #18
  %.017 = load ptr, ptr getelementptr inbounds nuw (i8, ptr @abd_tuples, i64 240), align 8, !tbaa !3
  %.not18 = icmp eq ptr %.017, getelementptr inbounds nuw (i8, ptr @abd_tuples, i64 120)
  br i1 %.not18, label %._crit_edge, label %.lr.ph

.lr.ph:                                           ; preds = %3, %38
  %.019 = phi ptr [ %.0, %38 ], [ %.017, %3 ]
  %8 = getelementptr inbounds nuw i8, ptr %.019, i64 444
  %9 = load i8, ptr %8, align 4, !tbaa !52, !range !53, !noundef !54
  %10 = trunc nuw i8 %9 to i1
  br i1 %10, label %11, label %38

11:                                               ; preds = %.lr.ph
  %12 = getelementptr inbounds nuw i8, ptr %.019, i64 440
  %13 = load i32, ptr %12, align 8, !tbaa !31
  %14 = icmp sgt i32 %13, 0
  br i1 %14, label %15, label %38

15:                                               ; preds = %11
  %.not16 = icmp eq i32 %13, 1
  %16 = select i1 %.not16, ptr @.str.5, ptr @.str.4
  %17 = getelementptr inbounds nuw i8, ptr %.019, i64 144
  %18 = load ptr, ptr %17, align 8, !tbaa !13
  %19 = getelementptr inbounds nuw i8, ptr %.019, i64 152
  %20 = load ptr, ptr %19, align 8, !tbaa !19
  %21 = call i32 (ptr, ptr, ...) @pmix_asprintf(ptr noundef nonnull %4, ptr noundef nonnull @.str.3, i32 noundef %13, ptr noundef nonnull %16, ptr noundef %18, ptr noundef %20) #18
  %22 = call i64 @time(ptr noundef null) #18
  %23 = getelementptr inbounds nuw i8, ptr %.019, i64 432
  store i64 %22, ptr %23, align 8, !tbaa !55
  call void @llvm.lifetime.start.p0(i64 50, ptr nonnull %5) #18
  call void @llvm.memset.p0.i64(ptr noundef nonnull align 16 dereferenceable(50) %5, i8 0, i64 50, i1 false)
  %24 = call ptr @localtime(ptr noundef nonnull %23) #18
  %25 = call i64 @strftime(ptr noundef nonnull %5, i64 noundef 50, ptr noundef nonnull @.str.6, ptr noundef %24) #18
  call void @llvm.lifetime.start.p0(i64 8, ptr nonnull %6) #18
  %26 = load ptr, ptr %17, align 8, !tbaa !13
  %27 = call i32 (ptr, ptr, ...) @pmix_asprintf(ptr noundef nonnull %6, ptr noundef nonnull @.str.7, ptr noundef %26, ptr noundef nonnull %5) #18
  %28 = load ptr, ptr %6, align 8, !tbaa !56
  %29 = load ptr, ptr %19, align 8, !tbaa !19
  %30 = load ptr, ptr %4, align 8, !tbaa !56
  call fastcc void @local_delivery(ptr noundef %28, ptr noundef %29, ptr noundef %30)
  %31 = load ptr, ptr %6, align 8, !tbaa !56
  call void @free(ptr noundef %31) #18
  store i32 0, ptr %12, align 8, !tbaa !31
  %.b = load i1, ptr @pmix_show_accumulated_duplicates.first, align 1
  br i1 %.b, label %37, label %32

32:                                               ; preds = %15
  %33 = call i32 (ptr, ptr, ...) @pmix_asprintf(ptr noundef nonnull %4, ptr noundef nonnull @.str.8, ptr noundef nonnull @.str.9) #18
  %34 = load ptr, ptr %17, align 8, !tbaa !13
  %35 = load ptr, ptr %19, align 8, !tbaa !19
  %36 = load ptr, ptr %4, align 8, !tbaa !56
  call fastcc void @local_delivery(ptr noundef %34, ptr noundef %35, ptr noundef %36)
  store i1 true, ptr @pmix_show_accumulated_duplicates.first, align 1
  br label %37

37:                                               ; preds = %32, %15
  call void @llvm.lifetime.end.p0(i64 8, ptr nonnull %6) #18
  call void @llvm.lifetime.end.p0(i64 50, ptr nonnull %5) #18
  br label %38

38:                                               ; preds = %.lr.ph, %11, %37
  %39 = getelementptr inbounds nuw i8, ptr %.019, i64 120
  %.0 = load ptr, ptr %39, align 8, !tbaa !3
  %.not = icmp eq ptr %.0, getelementptr inbounds nuw (i8, ptr @abd_tuples, i64 120)
  br i1 %.not, label %._crit_edge, label %.lr.ph, !llvm.loop !57

._crit_edge:                                      ; preds = %38, %3
  store i64 %7, ptr @show_help_time_last_displayed, align 8, !tbaa !32
  store i1 false, ptr @show_help_timer_set, align 1
  call void @llvm.lifetime.end.p0(i64 8, ptr nonnull %4) #18
  ret void
}